target datalayout = "e-m:e-p270:32:32-p271:32:32-p272:64:64-i64:64-i128:128-f80:128-n8:16:32:64-S128"
target triple = "x86_64-pc-linux-gnu"

; Function Attrs: nounwind uwtable
define hidden void @nghttp2_frame_unpack_priority_spec(ptr noundef %0, ptr noundef %1) #0 {
  %3 = alloca ptr, align 8
  %4 = alloca ptr, align 8
  %5 = alloca i32, align 4
  %6 = alloca i8, align 1
  %7 = alloca i32, align 4
  store ptr %0, ptr %3, align 8, !tbaa !8
  store ptr %1, ptr %4, align 8, !tbaa !3
  call void @llvm.lifetime.start.p0(i64 4, ptr %5) #7
  call void @llvm.lifetime.start.p0(i64 1, ptr %6) #7
  call void @llvm.lifetime.start.p0(i64 4, ptr %7) #7
  %8 = load ptr, ptr %4, align 8, !tbaa !3
  %9 = call i32 @nghttp2_get_uint32(ptr noundef %8)
  %10 = and i32 %9, 2147483647
  store i32 %10, ptr %5, align 4, !tbaa !19
  %11 = load ptr, ptr %4, align 8, !tbaa !3
  %12 = getelementptr inbounds i8, ptr %11, i64 0
  %13 = load i8, ptr %12, align 1, !tbaa !14
  %14 = zext i8 %13 to i32
  %15 = and i32 %14, 128
  %16 = icmp sgt i32 %15, 0
  %17 = zext i1 %16 to i32
  %18 = trunc i32 %17 to i8
  store i8 %18, ptr %6, align 1, !tbaa !14
  %19 = load ptr, ptr %4, align 8, !tbaa !3
  %20 = getelementptr inbounds i8, ptr %19, i64 4
  %21 = load i8, ptr %20, align 1, !tbaa !14
  %22 = zext i8 %21 to i32
  %23 = add nsw i32 %22, 1
  store i32 %23, ptr %7, align 4, !tbaa !19
  %24 = load ptr, ptr %3, align 8, !tbaa !8
  %25 = load i32, ptr %5, align 4, !tbaa !19
  %26 = load i32, ptr %7, align 4, !tbaa !19
  %27 = load i8, ptr %6, align 1, !tbaa !14
  %28 = zext i8 %27 to i32
  call void @nghttp2_priority_spec_init(ptr noundef %24, i32 noundef %25, i32 noundef %26, i32 noundef %28)
  call void @llvm.lifetime.end.p0(i64 4, ptr %7) #7
  call void @llvm.lifetime.end.p0(i64 1, ptr %6) #7
  call void @llvm.lifetime.end.p0(i64 4, ptr %5) #7
  ret void
}