; Function Attrs: nounwind uwtable
define hidden void @nghttp2_frame_unpack_priority_spec(ptr noundef %0, ptr noundef %1) local_unnamed_addr #0 {
  %3 = tail call i32 @nghttp2_get_uint32(ptr noundef %1) #18
  %4 = and i32 %3, 2147483647
  %5 = load i8, ptr %1, align 1, !tbaa !10
  %.lobit = lshr i8 %5, 7
  %6 = getelementptr inbounds nuw i8, ptr %1, i64 4
  %7 = load i8, ptr %6, align 1, !tbaa !10
  %8 = zext i8 %7 to i32
  %9 = add nuw nsw i32 %8, 1
  %10 = zext nneg i8 %.lobit to i32
  tail call void @nghttp2_priority_spec_init(ptr noundef %0, i32 noundef %4, i32 noundef %9, i32 noundef %10) #18
  ret void
}